; Function Attrs: mustprogress nounwind uwtable
define dso_local void @_ZN4llvm10DataLayoutC2ENS_9StringRefE(ptr noundef nonnull align 8 dereferenceable(512) initializes((0, 1), (4, 16), (17, 18), (19, 28)) %0, ptr %1, i64 %2) unnamed_addr #0 align 2 {
  %4 = alloca %"class.llvm::Error", align 8
  %5 = alloca %"class.llvm::Error", align 8
  tail call void @_ZN4llvm10DataLayoutC2Ev(ptr noundef nonnull align 8 dereferenceable(512) %0)
  call void @_ZN4llvm10DataLayout17parseLayoutStringENS_9StringRefE(ptr dead_on_unwind nonnull writable sret(%"class.llvm::Error") align 8 %4, ptr noundef nonnull align 8 dereferenceable(512) %0, ptr %1, i64 %2)
  %6 = load ptr, ptr %4, align 8
  %.not = icmp eq ptr %6, null
  br i1 %.not, label %_ZN4llvm5ErrorD2Ev.exit, label %7

7:                                                ; preds = %3
  store ptr %6, ptr %5, align 8
  store ptr null, ptr %4, align 8
  call void @_ZN4llvm18report_fatal_errorENS_5ErrorEb(ptr noundef nonnull %5, i1 noundef zeroext true) #20
  unreachable

_ZN4llvm5ErrorD2Ev.exit:                          ; preds = %3
  ret void
}